target datalayout = "e-m:e-p270:32:32-p271:32:32-p272:64:64-i64:64-i128:128-f80:128-n8:16:32:64-S128"
target triple = "x86_64-pc-linux-gnu"

%struct.FunctionCallInfoBaseData = type { ptr, ptr, ptr, i32, i8, i16, [0 x %struct.NullableDatum] }
%struct.NullableDatum = type { i64, i8 }
%struct.PgBackendStatus = type { i32, i32, i32, i64, i64, i64, i64, i32, i32, %struct.SockAddr, ptr, i8, ptr, i8, ptr, i32, ptr, ptr, i32, i32, [20 x i64], i64 }
%struct.SockAddr = type { %struct.sockaddr_storage, i32 }
%struct.sockaddr_storage = type { i16, [118 x i8], i64 }
%struct.PGPROC = type { %struct.dlist_node, ptr, ptr, i32, %struct.Latch, i32, i32, i32, i32, %struct.anon, i32, i32, i32, i8, i8, i8, i8, %struct.proclist_node, %struct.proclist_node, ptr, ptr, i32, i32, %struct.pg_atomic_uint64, i32, i8, i64, i32, %struct.dlist_node, [16 x %struct.dlist_head], %struct.XidCacheStatus, %struct.XidCache, i8, %struct.pg_atomic_uint32, i32, i32, i8, %struct.pg_atomic_uint32, i32, i32, i64, i64, %struct.LWLock, ptr, ptr, i8, i32, ptr, %struct.dlist_head, %struct.dlist_node }
%struct.Latch = type { i32, i32, i8, i32 }
%struct.anon = type { i32, i32 }
%struct.proclist_node = type { i32, i32 }
%struct.pg_atomic_uint64 = type { i64 }
%struct.XidCacheStatus = type { i8, i8 }
%struct.XidCache = type { [64 x i32] }
%struct.pg_atomic_uint32 = type { i32 }
%struct.LWLock = type { i16, %struct.pg_atomic_uint32, %struct.proclist_head }
%struct.proclist_head = type { i32, i32 }
%struct.dlist_head = type { %struct.dlist_node }
%struct.dlist_node = type { ptr, ptr }

@.str.14 = private unnamed_addr constant [25 x i8] c"<insufficient privilege>\00", align 1
@.str.17 = private unnamed_addr constant [36 x i8] c"<backend information not available>\00", align 1

; Function Attrs: inlinehint nounwind uwtable
define internal i64 @PointerGetDatum(ptr noundef %0) #2 {
  %2 = alloca ptr, align 8
  store ptr %0, ptr %2, align 8
  %3 = load ptr, ptr %2, align 8
  %4 = ptrtoint ptr %3 to i64
  ret i64 %4
}

; Function Attrs: inlinehint nounwind uwtable
define internal i32 @DatumGetInt32(i64 noundef %0) #2 {
  %2 = alloca i64, align 8
  store i64 %0, ptr %2, align 8
  %3 = load i64, ptr %2, align 8
  %4 = trunc i64 %3 to i32
  ret i32 %4
}

; Function Attrs: nounwind uwtable
define dso_local i64 @pg_stat_get_backend_wait_event_type(ptr noundef %0) #0 {
  %2 = alloca i64, align 8
  %3 = alloca ptr, align 8
  %4 = alloca i32, align 4
  %5 = alloca ptr, align 8
  %6 = alloca ptr, align 8
  %7 = alloca ptr, align 8
  %8 = alloca i32, align 4
  store ptr %0, ptr %3, align 8
  call void @llvm.lifetime.start.p0(i64 4, ptr %4) #10
  %9 = load ptr, ptr %3, align 8
  %10 = getelementptr inbounds nuw %struct.FunctionCallInfoBaseData, ptr %9, i32 0, i32 6
  %11 = getelementptr inbounds [0 x %struct.NullableDatum], ptr %10, i64 0, i64 0
  %12 = getelementptr inbounds nuw %struct.NullableDatum, ptr %11, i32 0, i32 0
  %13 = load i64, ptr %12, align 8
  %14 = call i32 @DatumGetInt32(i64 noundef %13)
  store i32 %14, ptr %4, align 4
  call void @llvm.lifetime.start.p0(i64 8, ptr %5) #10
  call void @llvm.lifetime.start.p0(i64 8, ptr %6) #10
  call void @llvm.lifetime.start.p0(i64 8, ptr %7) #10
  store ptr null, ptr %7, align 8
  %15 = load i32, ptr %4, align 4
  %16 = call ptr @pgstat_get_beentry_by_proc_number(i32 noundef %15)
  store ptr %16, ptr %5, align 8
  %17 = icmp eq ptr %16, null
  br i1 %17, label %18, label %19

18:                                               ; preds = %1
  store ptr @.str.17, ptr %7, align 8
  br label %42

19:                                               ; preds = %1
  %20 = call i32 @GetUserId()
  %21 = call zeroext i1 @has_privs_of_role(i32 noundef %20, i32 noundef 3375)
  br i1 %21, label %29, label %22

22:                                               ; preds = %19
  %23 = call i32 @GetUserId()
  %24 = load ptr, ptr %5, align 8
  %25 = getelementptr inbounds nuw %struct.PgBackendStatus, ptr %24, i32 0, i32 8
  %26 = load i32, ptr %25, align 4
  %27 = call zeroext i1 @has_privs_of_role(i32 noundef %23, i32 noundef %26)
  br i1 %27, label %29, label %28

28:                                               ; preds = %22
  store ptr @.str.14, ptr %7, align 8
  br label %41

29:                                               ; preds = %22, %19
  %30 = load ptr, ptr %5, align 8
  %31 = getelementptr inbounds nuw %struct.PgBackendStatus, ptr %30, i32 0, i32 1
  %32 = load i32, ptr %31, align 4
  %33 = call ptr @BackendPidGetProc(i32 noundef %32)
  store ptr %33, ptr %6, align 8
  %34 = icmp ne ptr %33, null
  br i1 %34, label %35, label %40

35:                                               ; preds = %29
  %36 = load ptr, ptr %6, align 8
  %37 = getelementptr inbounds nuw %struct.PGPROC, ptr %36, i32 0, i32 35
  %38 = load i32, ptr %37, align 8
  %39 = call ptr @pgstat_get_wait_event_type(i32 noundef %38)
  store ptr %39, ptr %7, align 8
  br label %40

40:                                               ; preds = %35, %29
  br label %41

41:                                               ; preds = %40, %28
  br label %42

42:                                               ; preds = %41, %18
  %43 = load ptr, ptr %7, align 8
  %44 = icmp ne ptr %43, null
  br i1 %44, label %51, label %45

45:                                               ; preds = %42
  br label %46

46:                                               ; preds = %45
  %47 = load ptr, ptr %3, align 8
  %48 = getelementptr inbounds nuw %struct.FunctionCallInfoBaseData, ptr %47, i32 0, i32 4
  store i8 1, ptr %48, align 4
  store i64 0, ptr %2, align 8
  store i32 1, ptr %8, align 4
  br label %55

49:                                               ; No predecessors!
  br label %50

50:                                               ; preds = %49
  br label %51

51:                                               ; preds = %50, %42
  %52 = load ptr, ptr %7, align 8
  %53 = call ptr @cstring_to_text(ptr noundef %52)
  %54 = call i64 @PointerGetDatum(ptr noundef %53)
  store i64 %54, ptr %2, align 8
  store i32 1, ptr %8, align 4
  br label %55

55:                                               ; preds = %51, %46
  call void @llvm.lifetime.end.p0(i64 8, ptr %7) #10
  call void @llvm.lifetime.end.p0(i64 8, ptr %6) #10
  call void @llvm.lifetime.end.p0(i64 8, ptr %5) #10
  call void @llvm.lifetime.end.p0(i64 4, ptr %4) #10
  %56 = load i64, ptr %2, align 8
  ret i64 %56
}